target datalayout = "e-m:e-p270:32:32-p271:32:32-p272:64:64-i64:64-i128:128-f80:128-n8:16:32:64-S128"
target triple = "x86_64-pc-linux-gnu"

%"class.casadi::TinyXmlInterface" = type { %"class.casadi::XmlFileInternal", %"class.tinyxml2::XMLDocument" }
%"class.casadi::XmlFileInternal" = type { %"class.casadi::SharedObjectInternal", %"class.casadi::PluginInterface" }
%"class.casadi::SharedObjectInternal" = type { ptr, i64, ptr }
%"class.casadi::PluginInterface" = type { ptr }
%"class.tinyxml2::XMLDocument" = type { %"class.tinyxml2::XMLNode", i8, i8, i32, i32, %"class.tinyxml2::StrPair", i32, ptr, i32, i32, %"class.tinyxml2::DynArray", %"class.tinyxml2::MemPoolT", %"class.tinyxml2::MemPoolT.1", %"class.tinyxml2::MemPoolT.3", %"class.tinyxml2::MemPoolT.5" }
%"class.tinyxml2::XMLNode" = type { ptr, ptr, ptr, %"class.tinyxml2::StrPair", i32, ptr, ptr, ptr, ptr, ptr, ptr }
%"class.tinyxml2::StrPair" = type { i32, ptr, ptr }
%"class.tinyxml2::DynArray" = type { ptr, [10 x ptr], i32, i32 }
%"class.tinyxml2::MemPoolT" = type { %"class.tinyxml2::MemPool", %"class.tinyxml2::DynArray.0", ptr, i32, i32, i32, i32 }
%"class.tinyxml2::MemPool" = type { ptr }
%"class.tinyxml2::DynArray.0" = type { ptr, [10 x ptr], i32, i32 }
%"class.tinyxml2::MemPoolT.1" = type { %"class.tinyxml2::MemPool", %"class.tinyxml2::DynArray.2", ptr, i32, i32, i32, i32 }
%"class.tinyxml2::DynArray.2" = type { ptr, [10 x ptr], i32, i32 }
%"class.tinyxml2::MemPoolT.3" = type { %"class.tinyxml2::MemPool", %"class.tinyxml2::DynArray.4", ptr, i32, i32, i32, i32 }
%"class.tinyxml2::DynArray.4" = type { ptr, [10 x ptr], i32, i32 }
%"class.tinyxml2::MemPoolT.5" = type { %"class.tinyxml2::MemPool", %"class.tinyxml2::DynArray.6", ptr, i32, i32, i32, i32 }
%"class.tinyxml2::DynArray.6" = type { ptr, [10 x ptr], i32, i32 }

; Function Attrs: mustprogress nounwind uwtable
define void @_ZN6casadi16TinyXmlInterfaceD2Ev(ptr noundef nonnull align 8 dereferenceable(808) %0) unnamed_addr #4 align 2 {
  %2 = alloca ptr, align 8
  store ptr %0, ptr %2, align 8
  %3 = load ptr, ptr %2, align 8
  store ptr getelementptr inbounds ({ [9 x ptr], [3 x ptr] }, ptr @_ZTVN6casadi16TinyXmlInterfaceE, i32 0, i32 0, i32 2), ptr %3, align 8
  %4 = getelementptr inbounds i8, ptr %3, i64 24
  store ptr getelementptr inbounds ({ [9 x ptr], [3 x ptr] }, ptr @_ZTVN6casadi16TinyXmlInterfaceE, i32 0, i32 1, i32 2), ptr %4, align 8
  %5 = getelementptr inbounds %"class.casadi::TinyXmlInterface", ptr %3, i32 0, i32 1
  call void @_ZN8tinyxml211XMLDocumentD1Ev(ptr noundef nonnull align 8 dereferenceable(776) %5) #3
  call void @_ZN6casadi15XmlFileInternalD2Ev(ptr noundef nonnull align 8 dereferenceable(32) %3) #3
  ret void
}