; Function Attrs: mustprogress nounwind uwtable
define void @_ZN6casadi16TinyXmlInterfaceD2Ev(ptr noundef nonnull align 8 dereferenceable(808) %0) unnamed_addr #3 align 2 {
  store ptr getelementptr inbounds ({ [9 x ptr], [3 x ptr] }, ptr @_ZTVN6casadi16TinyXmlInterfaceE, i64 0, i32 0, i64 2), ptr %0, align 8
  %2 = getelementptr inbounds i8, ptr %0, i64 24
  store ptr getelementptr inbounds ({ [9 x ptr], [3 x ptr] }, ptr @_ZTVN6casadi16TinyXmlInterfaceE, i64 0, i32 1, i64 2), ptr %2, align 8
  %3 = getelementptr inbounds i8, ptr %0, i64 32
  tail call void @_ZN8tinyxml211XMLDocumentD1Ev(ptr noundef nonnull align 8 dereferenceable(776) %3) #17
  tail call void @_ZN6casadi15XmlFileInternalD2Ev(ptr noundef nonnull align 8 dereferenceable(32) %0) #17
  ret void
}